target datalayout = "e-m:e-p270:32:32-p271:32:32-p272:64:64-i64:64-i128:128-f80:128-n8:16:32:64-S128"
target triple = "x86_64-unknown-linux-gnu"

%class.rational = type { %class.mpq }
%class.mpq = type { %class.mpz, %class.mpz }
%class.mpz = type { i32, i8, ptr }
%"class.nla::nex_creator::mul_factory" = type { ptr, %class.rational, %class.vector.17 }
%class.vector.17 = type { ptr }
%"class.nla::nex_mul" = type { %"class.nla::nex", %class.rational, %class.vector.17 }
%"class.nla::nex" = type { ptr }
%"class.nla::nex_pow" = type <{ ptr, i32, [4 x i8] }>
%class.ptr_vector = type { %class.vector }
%class.vector = type { ptr }
%"class.nla::nex_creator" = type { %class.ptr_vector, %"class.std::unordered_map", %"class.std::unordered_map.2", %class.svector, %"class.nla::nex_creator::mul_factory" }
%"class.std::unordered_map" = type { %"class.std::_Hashtable" }
%"class.std::_Hashtable" = type { ptr, i64, %"struct.std::__detail::_Hash_node_base", i64, %"struct.std::__detail::_Prime_rehash_policy", ptr }
%"struct.std::__detail::_Hash_node_base" = type { ptr }
%"struct.std::__detail::_Prime_rehash_policy" = type { float, i64 }
%"class.std::unordered_map.2" = type { %"class.std::_Hashtable.3" }
%"class.std::_Hashtable.3" = type { ptr, i64, %"struct.std::__detail::_Hash_node_base", i64, %"struct.std::__detail::_Prime_rehash_policy", ptr }
%class.svector = type { %class.vector.16 }
%class.vector.16 = type { ptr }
%"class.nla::nex_var" = type <{ %"class.nla::nex", i32, [4 x i8] }>
%"class.nla::nex_sum" = type { %"class.nla::nex", %class.ptr_vector }

@.str = private unnamed_addr constant [111 x i8] c"generated/home/dtcxzyw/WorkSpace/Projects/compilers/llvm-opt-benchmark/bench/z3/z3/src/math/lp/nex_creator.cpp\00", align 1
@.str.1 = private unnamed_addr constant [29 x i8] c"UNEXPECTED CODE WAS REACHED.\00", align 1

; Function Attrs: mustprogress nounwind uwtable
define linkonce_odr hidden noundef nonnull align 8 dereferenceable(8) ptr @_ZNK6vectorIPN3nla3nexELb0EjEixEj(ptr noundef nonnull align 8 dereferenceable(8) %this, i32 noundef %idx) #5 comdat align 2 {
entry:
  %this.addr = alloca ptr, align 8
  %idx.addr = alloca i32, align 4
  store ptr %this, ptr %this.addr, align 8
  store i32 %idx, ptr %idx.addr, align 4
  %this1 = load ptr, ptr %this.addr, align 8
  %m_data = getelementptr inbounds %class.vector, ptr %this1, i32 0, i32 0
  %0 = load ptr, ptr %m_data, align 8
  %1 = load i32, ptr %idx.addr, align 4
  %idxprom = zext i32 %1 to i64
  %arrayidx = getelementptr inbounds ptr, ptr %0, i64 %idxprom
  ret ptr %arrayidx
}

; Function Attrs: mustprogress nounwind uwtable
define linkonce_odr hidden noundef nonnull align 8 dereferenceable(12) ptr @_ZNK6vectorIN3nla7nex_powELb1EjEixEj(ptr noundef nonnull align 8 dereferenceable(8) %this, i32 noundef %idx) #5 comdat align 2 {
entry:
  %this.addr = alloca ptr, align 8
  %idx.addr = alloca i32, align 4
  store ptr %this, ptr %this.addr, align 8
  store i32 %idx, ptr %idx.addr, align 4
  %this1 = load ptr, ptr %this.addr, align 8
  %m_data = getelementptr inbounds %class.vector.17, ptr %this1, i32 0, i32 0
  %0 = load ptr, ptr %m_data, align 8
  %1 = load i32, ptr %idx.addr, align 4
  %idxprom = zext i32 %1 to i64
  %arrayidx = getelementptr inbounds %"class.nla::nex_pow", ptr %0, i64 %idxprom
  ret ptr %arrayidx
}

; Function Attrs: mustprogress nounwind uwtable
define linkonce_odr hidden noundef nonnull align 4 dereferenceable(4) ptr @_ZNK6vectorIjLb0EjEixEj(ptr noundef nonnull align 8 dereferenceable(8) %this, i32 noundef %idx) #5 comdat align 2 {
entry:
  %this.addr = alloca ptr, align 8
  %idx.addr = alloca i32, align 4
  store ptr %this, ptr %this.addr, align 8
  store i32 %idx, ptr %idx.addr, align 4
  %this1 = load ptr, ptr %this.addr, align 8
  %m_data = getelementptr inbounds %class.vector.16, ptr %this1, i32 0, i32 0
  %0 = load ptr, ptr %m_data, align 8
  %1 = load i32, ptr %idx.addr, align 4
  %idxprom = zext i32 %1 to i64
  %arrayidx = getelementptr inbounds i32, ptr %0, i64 %idxprom
  ret ptr %arrayidx
}

; Function Attrs: mustprogress uwtable
define linkonce_odr hidden noundef zeroext i1 @_ZNK3nla11nex_creator2gtEPKNS_3nexES3_(ptr noundef nonnull align 8 dereferenceable(176) %this, ptr noundef %a, ptr noundef %b) #4 comdat align 2 {
entry:
  %this.addr = alloca ptr, align 8
  %a.addr = alloca ptr, align 8
  %b.addr = alloca ptr, align 8
  store ptr %this, ptr %this.addr, align 8
  store ptr %a, ptr %a.addr, align 8
  store ptr %b, ptr %b.addr, align 8
  %this1 = load ptr, ptr %this.addr, align 8
  %0 = load ptr, ptr %a.addr, align 8
  %1 = load ptr, ptr %b.addr, align 8
  %call = call noundef zeroext i1 @_ZNK3nla11nex_creator2gtERKNS_3nexES3_(ptr noundef nonnull align 8 dereferenceable(176) %this1, ptr noundef nonnull align 8 dereferenceable(8) %0, ptr noundef nonnull align 8 dereferenceable(8) %1)
  ret i1 %call
}

; Function Attrs: mustprogress uwtable
define linkonce_odr hidden noundef ptr @_ZNK3nla7nex_sumixEj(ptr noundef nonnull align 8 dereferenceable(16) %this, i32 noundef %j) #4 comdat align 2 {
entry:
  %this.addr = alloca ptr, align 8
  %j.addr = alloca i32, align 4
  store ptr %this, ptr %this.addr, align 8
  store i32 %j, ptr %j.addr, align 4
  %this1 = load ptr, ptr %this.addr, align 8
  %m_children = getelementptr inbounds %"class.nla::nex_sum", ptr %this1, i32 0, i32 1
  %0 = load i32, ptr %j.addr, align 4
  %call = call noundef nonnull align 8 dereferenceable(8) ptr @_ZNK6vectorIPN3nla3nexELb0EjEixEj(ptr noundef nonnull align 8 dereferenceable(8) %m_children, i32 noundef %0)
  %1 = load ptr, ptr %call, align 8
  ret ptr %1
}

; Function Attrs: mustprogress nounwind uwtable
define linkonce_odr hidden noundef nonnull align 8 dereferenceable(16) ptr @_ZNK3nla3nex6to_sumEv(ptr noundef nonnull align 8 dereferenceable(8) %this) #5 comdat align 2 {
entry:
  %this.addr = alloca ptr, align 8
  store ptr %this, ptr %this.addr, align 8
  %this1 = load ptr, ptr %this.addr, align 8
  ret ptr %this1
}

; Function Attrs: mustprogress nounwind uwtable
define linkonce_odr hidden noundef ptr @_ZNK3nla7nex_pow1eEv(ptr noundef nonnull align 8 dereferenceable(12) %this) #5 comdat align 2 {
entry:
  %this.addr = alloca ptr, align 8
  store ptr %this, ptr %this.addr, align 8
  %this1 = load ptr, ptr %this.addr, align 8
  %m_e = getelementptr inbounds %"class.nla::nex_pow", ptr %this1, i32 0, i32 0
  %0 = load ptr, ptr %m_e, align 8
  ret ptr %0
}

; Function Attrs: mustprogress uwtable
define linkonce_odr hidden noundef nonnull align 8 dereferenceable(12) ptr @_ZNK3nla7nex_mulixEj(ptr noundef nonnull align 8 dereferenceable(48) %this, i32 noundef %j) #4 comdat align 2 {
entry:
  %this.addr = alloca ptr, align 8
  %j.addr = alloca i32, align 4
  store ptr %this, ptr %this.addr, align 8
  store i32 %j, ptr %j.addr, align 4
  %this1 = load ptr, ptr %this.addr, align 8
  %m_children = getelementptr inbounds %"class.nla::nex_mul", ptr %this1, i32 0, i32 2
  %0 = load i32, ptr %j.addr, align 4
  %call = call noundef nonnull align 8 dereferenceable(12) ptr @_ZNK6vectorIN3nla7nex_powELb1EjEixEj(ptr noundef nonnull align 8 dereferenceable(8) %m_children, i32 noundef %0)
  ret ptr %call
}

; Function Attrs: mustprogress nounwind uwtable
define linkonce_odr hidden noundef nonnull align 8 dereferenceable(48) ptr @_ZNK3nla3nex6to_mulEv(ptr noundef nonnull align 8 dereferenceable(8) %this) #5 comdat align 2 {
entry:
  %this.addr = alloca ptr, align 8
  store ptr %this, ptr %this.addr, align 8
  %this1 = load ptr, ptr %this.addr, align 8
  ret ptr %this1
}

; Function Attrs: mustprogress uwtable
define linkonce_odr hidden noundef zeroext i1 @_ZNK3nla11nex_creator2gtEjj(ptr noundef nonnull align 8 dereferenceable(176) %this, i32 noundef %j, i32 noundef %k) #4 comdat align 2 {
entry:
  %this.addr = alloca ptr, align 8
  %j.addr = alloca i32, align 4
  %k.addr = alloca i32, align 4
  %wj = alloca i32, align 4
  %wk = alloca i32, align 4
  store ptr %this, ptr %this.addr, align 8
  store i32 %j, ptr %j.addr, align 4
  store i32 %k, ptr %k.addr, align 4
  %this1 = load ptr, ptr %this.addr, align 8
  %m_active_vars_weights = getelementptr inbounds %"class.nla::nex_creator", ptr %this1, i32 0, i32 3
  %0 = load i32, ptr %j.addr, align 4
  %call = call noundef nonnull align 4 dereferenceable(4) ptr @_ZNK6vectorIjLb0EjEixEj(ptr noundef nonnull align 8 dereferenceable(8) %m_active_vars_weights, i32 noundef %0)
  %1 = load i32, ptr %call, align 4
  store i32 %1, ptr %wj, align 4
  %m_active_vars_weights2 = getelementptr inbounds %"class.nla::nex_creator", ptr %this1, i32 0, i32 3
  %2 = load i32, ptr %k.addr, align 4
  %call3 = call noundef nonnull align 4 dereferenceable(4) ptr @_ZNK6vectorIjLb0EjEixEj(ptr noundef nonnull align 8 dereferenceable(8) %m_active_vars_weights2, i32 noundef %2)
  %3 = load i32, ptr %call3, align 4
  store i32 %3, ptr %wk, align 4
  %4 = load i32, ptr %wj, align 4
  %5 = load i32, ptr %wk, align 4
  %cmp = icmp ne i32 %4, %5
  br i1 %cmp, label %cond.true, label %cond.false

cond.true:                                        ; preds = %entry
  %6 = load i32, ptr %wj, align 4
  %7 = load i32, ptr %wk, align 4
  %cmp4 = icmp ugt i32 %6, %7
  br label %cond.end

cond.false:                                       ; preds = %entry
  %8 = load i32, ptr %j.addr, align 4
  %9 = load i32, ptr %k.addr, align 4
  %cmp5 = icmp ugt i32 %8, %9
  br label %cond.end

cond.end:                                         ; preds = %cond.false, %cond.true
  %cond = phi i1 [ %cmp4, %cond.true ], [ %cmp5, %cond.false ]
  ret i1 %cond
}

; Function Attrs: mustprogress nounwind uwtable
define linkonce_odr hidden noundef nonnull align 8 dereferenceable(12) ptr @_ZNK3nla3nex6to_varEv(ptr noundef nonnull align 8 dereferenceable(8) %this) #5 comdat align 2 {
entry:
  %this.addr = alloca ptr, align 8
  store ptr %this, ptr %this.addr, align 8
  %this1 = load ptr, ptr %this.addr, align 8
  ret ptr %this1
}

; Function Attrs: mustprogress nounwind uwtable
define linkonce_odr hidden noundef i32 @_ZNK3nla7nex_var3varEv(ptr noundef nonnull align 8 dereferenceable(12) %this) #5 comdat align 2 {
entry:
  %this.addr = alloca ptr, align 8
  store ptr %this, ptr %this.addr, align 8
  %this1 = load ptr, ptr %this.addr, align 8
  %m_j = getelementptr inbounds %"class.nla::nex_var", ptr %this1, i32 0, i32 1
  %0 = load i32, ptr %m_j, align 8
  ret i32 %0
}

; Function Attrs: mustprogress uwtable
define hidden noundef zeroext i1 @_ZNK3nla11nex_creator13gt_on_var_nexERKNS_7nex_varERKNS_3nexE(ptr noundef nonnull align 8 dereferenceable(176) %this, ptr noundef nonnull align 8 dereferenceable(12) %a, ptr noundef nonnull align 8 dereferenceable(8) %b) #4 align 2 {
entry:
  %retval = alloca i1, align 1
  %this.addr = alloca ptr, align 8
  %a.addr = alloca ptr, align 8
  %b.addr = alloca ptr, align 8
  store ptr %this, ptr %this.addr, align 8
  store ptr %a, ptr %a.addr, align 8
  store ptr %b, ptr %b.addr, align 8
  %this1 = load ptr, ptr %this.addr, align 8
  %0 = load ptr, ptr %b.addr, align 8
  %vtable = load ptr, ptr %0, align 8
  %vfn = getelementptr inbounds ptr, ptr %vtable, i64 1
  %1 = load ptr, ptr %vfn, align 8
  %call = call noundef i32 %1(ptr noundef nonnull align 8 dereferenceable(8) %0)
  switch i32 %call, label %sw.default [
    i32 0, label %sw.bb
    i32 1, label %sw.bb2
    i32 3, label %sw.bb7
    i32 2, label %sw.bb15
  ]

sw.bb:                                            ; preds = %entry
  store i1 true, ptr %retval, align 1
  br label %return

sw.bb2:                                           ; preds = %entry
  %2 = load ptr, ptr %a.addr, align 8
  %call3 = call noundef i32 @_ZNK3nla7nex_var3varEv(ptr noundef nonnull align 8 dereferenceable(12) %2)
  %3 = load ptr, ptr %b.addr, align 8
  %call4 = call noundef nonnull align 8 dereferenceable(12) ptr @_ZNK3nla3nex6to_varEv(ptr noundef nonnull align 8 dereferenceable(8) %3)
  %call5 = call noundef i32 @_ZNK3nla7nex_var3varEv(ptr noundef nonnull align 8 dereferenceable(12) %call4)
  %call6 = call noundef zeroext i1 @_ZNK3nla11nex_creator2gtEjj(ptr noundef nonnull align 8 dereferenceable(176) %this1, i32 noundef %call3, i32 noundef %call5)
  store i1 %call6, ptr %retval, align 1
  br label %return

sw.bb7:                                           ; preds = %entry
  %4 = load ptr, ptr %b.addr, align 8
  %vtable8 = load ptr, ptr %4, align 8
  %vfn9 = getelementptr inbounds ptr, ptr %vtable8, i64 11
  %5 = load ptr, ptr %vfn9, align 8
  %call10 = call noundef i32 %5(ptr noundef nonnull align 8 dereferenceable(8) %4)
  %cmp = icmp ule i32 %call10, 1
  br i1 %cmp, label %land.rhs, label %land.end

land.rhs:                                         ; preds = %sw.bb7
  %6 = load ptr, ptr %a.addr, align 8
  %7 = load ptr, ptr %b.addr, align 8
  %call11 = call noundef nonnull align 8 dereferenceable(48) ptr @_ZNK3nla3nex6to_mulEv(ptr noundef nonnull align 8 dereferenceable(8) %7)
  %call12 = call noundef nonnull align 8 dereferenceable(12) ptr @_ZNK3nla7nex_mulixEj(ptr noundef nonnull align 8 dereferenceable(48) %call11, i32 noundef 0)
  %call13 = call noundef ptr @_ZNK3nla7nex_pow1eEv(ptr noundef nonnull align 8 dereferenceable(12) %call12)
  %call14 = call noundef zeroext i1 @_ZNK3nla11nex_creator13gt_on_var_nexERKNS_7nex_varERKNS_3nexE(ptr noundef nonnull align 8 dereferenceable(176) %this1, ptr noundef nonnull align 8 dereferenceable(12) %6, ptr noundef nonnull align 8 dereferenceable(8) %call13)
  br label %land.end

land.end:                                         ; preds = %land.rhs, %sw.bb7
  %8 = phi i1 [ false, %sw.bb7 ], [ %call14, %land.rhs ]
  store i1 %8, ptr %retval, align 1
  br label %return

sw.bb15:                                          ; preds = %entry
  %9 = load ptr, ptr %a.addr, align 8
  %10 = load ptr, ptr %b.addr, align 8
  %call16 = call noundef nonnull align 8 dereferenceable(16) ptr @_ZNK3nla3nex6to_sumEv(ptr noundef nonnull align 8 dereferenceable(8) %10)
  %call17 = call noundef ptr @_ZNK3nla7nex_sumixEj(ptr noundef nonnull align 8 dereferenceable(16) %call16, i32 noundef 0)
  %call18 = call noundef zeroext i1 @_ZNK3nla11nex_creator2gtEPKNS_3nexES3_(ptr noundef nonnull align 8 dereferenceable(176) %this1, ptr noundef %9, ptr noundef %call17)
  br i1 %call18, label %if.then, label %if.end

if.then:                                          ; preds = %sw.bb15
  store i1 true, ptr %retval, align 1
  br label %return

if.end:                                           ; preds = %sw.bb15
  %11 = load ptr, ptr %b.addr, align 8
  %call19 = call noundef nonnull align 8 dereferenceable(16) ptr @_ZNK3nla3nex6to_sumEv(ptr noundef nonnull align 8 dereferenceable(8) %11)
  %call20 = call noundef ptr @_ZNK3nla7nex_sumixEj(ptr noundef nonnull align 8 dereferenceable(16) %call19, i32 noundef 0)
  %12 = load ptr, ptr %a.addr, align 8
  %call21 = call noundef zeroext i1 @_ZNK3nla11nex_creator2gtEPKNS_3nexES3_(ptr noundef nonnull align 8 dereferenceable(176) %this1, ptr noundef %call20, ptr noundef %12)
  br i1 %call21, label %if.then22, label %if.end23

if.then22:                                        ; preds = %if.end
  store i1 false, ptr %retval, align 1
  br label %return

if.end23:                                         ; preds = %if.end
  store i1 true, ptr %retval, align 1
  br label %return

sw.default:                                       ; preds = %entry
  call void @_Z26notify_assertion_violationPKciS0_(ptr noundef @.str, i32 noundef 155, ptr noundef @.str.1)
  call void @exit(i32 noundef 114) #17
  unreachable

return:                                           ; preds = %if.end23, %if.then22, %if.then, %land.end, %sw.bb2, %sw.bb
  %13 = load i1, ptr %retval, align 1
  ret i1 %13
}