; Function Attrs: mustprogress uwtable
define hidden noundef zeroext i1 @_ZNK3nla11nex_creator13gt_on_var_nexERKNS_7nex_varERKNS_3nexE(ptr noundef nonnull align 8 dereferenceable(176) %this, ptr noundef nonnull align 8 dereferenceable(12) %a, ptr noundef nonnull align 8 dereferenceable(8) %b) local_unnamed_addr #3 align 2 {
entry:
  br label %tailrecurse

tailrecurse:                                      ; preds = %land.rhs, %entry
  %b.tr = phi ptr [ %b, %entry ], [ %8, %land.rhs ]
  %vtable = load ptr, ptr %b.tr, align 8
  %vfn = getelementptr inbounds i8, ptr %vtable, i64 8
  %0 = load ptr, ptr %vfn, align 8
  %call = tail call noundef i32 %0(ptr noundef nonnull align 8 dereferenceable(8) %b.tr)
  switch i32 %call, label %sw.default [
    i32 0, label %return
    i32 1, label %sw.bb2
    i32 3, label %sw.bb7
    i32 2, label %sw.bb15
  ]

sw.bb2:                                           ; preds = %tailrecurse
  %m_j.i = getelementptr inbounds i8, ptr %a, i64 8
  %1 = load i32, ptr %m_j.i, align 8
  %m_j.i9 = getelementptr inbounds i8, ptr %b.tr, i64 8
  %2 = load i32, ptr %m_j.i9, align 8
  %m_active_vars_weights.i = getelementptr inbounds i8, ptr %this, i64 120
  %3 = load ptr, ptr %m_active_vars_weights.i, align 8
  %idxprom.i.i = zext i32 %1 to i64
  %arrayidx.i.i = getelementptr inbounds i32, ptr %3, i64 %idxprom.i.i
  %4 = load i32, ptr %arrayidx.i.i, align 4
  %idxprom.i6.i = zext i32 %2 to i64
  %arrayidx.i7.i = getelementptr inbounds i32, ptr %3, i64 %idxprom.i6.i
  %5 = load i32, ptr %arrayidx.i7.i, align 4
  %cmp.not.i = icmp eq i32 %4, %5
  %cmp4.i = icmp ugt i32 %4, %5
  %cmp5.i = icmp ugt i32 %1, %2
  %cond.i = select i1 %cmp.not.i, i1 %cmp5.i, i1 %cmp4.i
  br label %return

sw.bb7:                                           ; preds = %tailrecurse
  %vtable8 = load ptr, ptr %b.tr, align 8
  %vfn9 = getelementptr inbounds i8, ptr %vtable8, i64 88
  %6 = load ptr, ptr %vfn9, align 8
  %call10 = tail call noundef i32 %6(ptr noundef nonnull align 8 dereferenceable(8) %b.tr)
  %cmp = icmp ult i32 %call10, 2
  br i1 %cmp, label %land.rhs, label %return

land.rhs:                                         ; preds = %sw.bb7
  %m_children.i = getelementptr inbounds i8, ptr %b.tr, i64 40
  %7 = load ptr, ptr %m_children.i, align 8
  %8 = load ptr, ptr %7, align 8
  br label %tailrecurse

sw.bb15:                                          ; preds = %tailrecurse
  %m_children.i10 = getelementptr inbounds i8, ptr %b.tr, i64 8
  %9 = load ptr, ptr %m_children.i10, align 8
  %10 = load ptr, ptr %9, align 8
  %call.i = tail call noundef zeroext i1 @_ZNK3nla11nex_creator2gtERKNS_3nexES3_(ptr noundef nonnull align 8 dereferenceable(176) %this, ptr noundef nonnull align 8 dereferenceable(8) %a, ptr noundef nonnull align 8 dereferenceable(8) %10)
  br i1 %call.i, label %return, label %if.end

if.end:                                           ; preds = %sw.bb15
  %11 = load ptr, ptr %m_children.i10, align 8
  %12 = load ptr, ptr %11, align 8
  %call.i12 = tail call noundef zeroext i1 @_ZNK3nla11nex_creator2gtERKNS_3nexES3_(ptr noundef nonnull align 8 dereferenceable(176) %this, ptr noundef nonnull align 8 dereferenceable(8) %12, ptr noundef nonnull align 8 dereferenceable(8) %a)
  %not.call.i12 = xor i1 %call.i12, true
  br label %return

sw.default:                                       ; preds = %tailrecurse
  tail call void @_Z26notify_assertion_violationPKciS0_(ptr noundef nonnull @.str, i32 noundef 155, ptr noundef nonnull @.str.1)
  tail call void @exit(i32 noundef 114) #20
  unreachable

return:                                           ; preds = %sw.bb7, %tailrecurse, %if.end, %sw.bb15, %sw.bb2
  %retval.0 = phi i1 [ %cond.i, %sw.bb2 ], [ true, %sw.bb15 ], [ %not.call.i12, %if.end ], [ false, %sw.bb7 ], [ true, %tailrecurse ]
  ret i1 %retval.0
}